(lp0
(S'cppflags'
p1
ccopy_reg
_reconstructor
p2
(cino.utils
SpaceList
p3
c__builtin__
list
p4
(lp5
S'-mmcu=atmega328p'
p6
aS'-DF_CPU=16000000L'
p7
aS'-DARDUINO=105'
p8
aS'-I/usr/share/arduino/hardware/arduino/cores/arduino'
p9
aS'-ffunction-sections'
p10
aS'-fdata-sections'
p11
aS'-g'
p12
aS'-Os'
p13
aS'-w'
p14
aS'-I/usr/share/arduino/hardware/arduino/variants/standard'
p15
aS'-I/usr/share/arduino/libraries/Robot_Control'
p16
aS'-I/usr/share/arduino/libraries/Robot_Control/utility'
p17
aS'-I/usr/share/arduino/libraries/SD'
p18
aS'-I/usr/share/arduino/libraries/SD/utility'
p19
aS'-I/usr/share/arduino/hardware/arduino/cores/arduino'
p20
aS'-I/usr/share/arduino/hardware/arduino/cores/arduino/avr-libc'
p21
atp22
Rp23
tp24
a(S'cxx'
p25
S'/usr/share/arduino/hardware/tools/avr/bin/avr-g++'
p26
tp27
a(S'arduino_libraries_dir'
p28
S'/usr/share/arduino/libraries'
p29
tp30
a(S'avrdude'
p31
S'/usr/share/arduino/hardware/tools/avrdude'
p32
tp33
a(S'ar'
p34
S'/usr/share/arduino/hardware/tools/avr/bin/avr-ar'
p35
tp36
a(S'names'
p37
(dp38
S'cpp'
p39
S'%s.cpp'
p40
sS'obj'
p41
S'%s.o'
p42
sS'lib'
p43
S'lib%s.a'
p44
sS'deps'
p45
S'%s.d'
p46
stp47
a(S'ldflags'
p48
g2
(g3
g4
(lp49
g6
aS'-Wl,-Os'
p50
aS'-Wl,--gc-sections'
p51
atp52
Rp53
tp54
a(S'arduino_lib_version'
p55
g2
(cino.environment
Version
p56
c__builtin__
tuple
p57
(I1
I0
I5
tp58
tp59
Rp60
tp61
a(S'objcopy'
p62
S'/usr/share/arduino/hardware/tools/avr/bin/avr-objcopy'
p63
tp64
a(S'board_models'
p65
cino.environment
BoardModels
p66
((lp67
(lp68
S'uno'
p69
a(dp70
S'bootloader'
p71
(dp72
S'extended_fuses'
p73
S'0x05'
p74
sS'high_fuses'
p75
S'0xde'
p76
sS'low_fuses'
p77
S'0xff'
p78
sS'lock_bits'
p79
S'0x0F'
p80
sS'file'
p81
S'optiboot_atmega328.hex'
p82
sS'path'
p83
S'optiboot'
p84
sS'unlock_bits'
p85
S'0x3F'
p86
ssS'upload'
p87
(dp88
S'speed'
p89
S'115200'
p90
sS'maximum_size'
p91
S'32256'
p92
sS'protocol'
p93
S'arduino'
p94
ssS'name'
p95
S'Arduino Uno'
p96
sS'build'
p97
(dp98
S'core'
p99
S'arduino'
p100
sS'mcu'
p101
S'atmega328p'
p102
sS'f_cpu'
p103
S'16000000L'
p104
sS'variant'
p105
S'standard'
p106
ssaa(lp107
S'atmega328'
p108
a(dp109
S'bootloader'
p110
(dp111
S'extended_fuses'
p112
S'0x05'
p113
sS'high_fuses'
p114
S'0xDA'
p115
sS'low_fuses'
p116
S'0xFF'
p117
sS'lock_bits'
p118
S'0x0F'
p119
sS'file'
p120
S'ATmegaBOOT_168_atmega328.hex'
p121
sS'path'
p122
S'atmega'
p123
sS'unlock_bits'
p124
S'0x3F'
p125
ssS'upload'
p126
(dp127
S'speed'
p128
S'57600'
p129
sS'maximum_size'
p130
S'30720'
p131
sS'protocol'
p132
S'arduino'
p133
ssS'name'
p134
S'Arduino Duemilanove w/ ATmega328'
p135
sS'build'
p136
(dp137
S'core'
p138
S'arduino'
p139
sS'mcu'
p140
S'atmega328p'
p141
sS'f_cpu'
p142
S'16000000L'
p143
sS'variant'
p144
S'standard'
p145
ssaa(lp146
S'diecimila'
p147
a(dp148
S'bootloader'
p149
(dp150
S'extended_fuses'
p151
S'0x00'
p152
sS'high_fuses'
p153
S'0xdd'
p154
sS'low_fuses'
p155
S'0xff'
p156
sS'lock_bits'
p157
S'0x0F'
p158
sS'file'
p159
S'ATmegaBOOT_168_diecimila.hex'
p160
sS'path'
p161
S'atmega'
p162
sS'unlock_bits'
p163
S'0x3F'
p164
ssS'upload'
p165
(dp166
S'speed'
p167
S'19200'
p168
sS'maximum_size'
p169
S'14336'
p170
sS'protocol'
p171
S'arduino'
p172
ssS'name'
p173
S'Arduino Diecimila or Duemilanove w/ ATmega168'
p174
sS'build'
p175
(dp176
S'core'
p177
S'arduino'
p178
sS'mcu'
p179
S'atmega168'
p180
sS'f_cpu'
p181
S'16000000L'
p182
sS'variant'
p183
S'standard'
p184
ssaa(lp185
S'nano328'
p186
a(dp187
S'bootloader'
p188
(dp189
S'extended_fuses'
p190
S'0x05'
p191
sS'high_fuses'
p192
S'0xDA'
p193
sS'low_fuses'
p194
S'0xFF'
p195
sS'lock_bits'
p196
S'0x0F'
p197
sS'file'
p198
S'ATmegaBOOT_168_atmega328.hex'
p199
sS'path'
p200
S'atmega'
p201
sS'unlock_bits'
p202
S'0x3F'
p203
ssS'upload'
p204
(dp205
S'speed'
p206
S'57600'
p207
sS'maximum_size'
p208
S'30720'
p209
sS'protocol'
p210
S'arduino'
p211
ssS'name'
p212
S'Arduino Nano w/ ATmega328'
p213
sS'build'
p214
(dp215
S'core'
p216
S'arduino'
p217
sS'mcu'
p218
S'atmega328p'
p219
sS'f_cpu'
p220
S'16000000L'
p221
sS'variant'
p222
S'eightanaloginputs'
p223
ssaa(lp224
S'nano'
p225
a(dp226
S'bootloader'
p227
(dp228
S'extended_fuses'
p229
S'0x00'
p230
sS'high_fuses'
p231
S'0xdd'
p232
sS'low_fuses'
p233
S'0xff'
p234
sS'lock_bits'
p235
S'0x0F'
p236
sS'file'
p237
S'ATmegaBOOT_168_diecimila.hex'
p238
sS'path'
p239
S'atmega'
p240
sS'unlock_bits'
p241
S'0x3F'
p242
ssS'upload'
p243
(dp244
S'speed'
p245
S'19200'
p246
sS'maximum_size'
p247
S'14336'
p248
sS'protocol'
p249
S'arduino'
p250
ssS'name'
p251
S'Arduino Nano w/ ATmega168'
p252
sS'build'
p253
(dp254
S'core'
p255
S'arduino'
p256
sS'mcu'
p257
S'atmega168'
p258
sS'f_cpu'
p259
S'16000000L'
p260
sS'variant'
p261
S'eightanaloginputs'
p262
ssaa(lp263
S'mega2560'
p264
a(dp265
S'bootloader'
p266
(dp267
S'extended_fuses'
p268
S'0xFD'
p269
sS'high_fuses'
p270
S'0xD8'
p271
sS'low_fuses'
p272
S'0xFF'
p273
sS'lock_bits'
p274
S'0x0F'
p275
sS'file'
p276
S'stk500boot_v2_mega2560.hex'
p277
sS'path'
p278
S'stk500v2'
p279
sS'unlock_bits'
p280
S'0x3F'
p281
ssS'upload'
p282
(dp283
S'speed'
p284
S'115200'
p285
sS'maximum_size'
p286
S'258048'
p287
sS'protocol'
p288
S'wiring'
p289
ssS'name'
p290
S'Arduino Mega 2560 or Mega ADK'
p291
sS'build'
p292
(dp293
S'core'
p294
S'arduino'
p295
sS'mcu'
p296
S'atmega2560'
p297
sS'f_cpu'
p298
S'16000000L'
p299
sS'variant'
p300
S'mega'
p301
ssaa(lp302
S'mega'
p303
a(dp304
S'bootloader'
p305
(dp306
S'extended_fuses'
p307
S'0xF5'
p308
sS'high_fuses'
p309
S'0xDA'
p310
sS'low_fuses'
p311
S'0xFF'
p312
sS'lock_bits'
p313
S'0x0F'
p314
sS'file'
p315
S'ATmegaBOOT_168_atmega1280.hex'
p316
sS'path'
p317
S'atmega'
p318
sS'unlock_bits'
p319
S'0x3F'
p320
ssS'upload'
p321
(dp322
S'speed'
p323
S'57600'
p324
sS'maximum_size'
p325
S'126976'
p326
sS'protocol'
p327
S'arduino'
p328
ssS'name'
p329
S'Arduino Mega (ATmega1280)'
p330
sS'build'
p331
(dp332
S'core'
p333
S'arduino'
p334
sS'mcu'
p335
S'atmega1280'
p336
sS'f_cpu'
p337
S'16000000L'
p338
sS'variant'
p339
S'mega'
p340
ssaa(lp341
S'leonardo'
p342
a(dp343
S'bootloader'
p344
(dp345
S'extended_fuses'
p346
S'0xcb'
p347
sS'high_fuses'
p348
S'0xd8'
p349
sS'low_fuses'
p350
S'0xff'
p351
sS'lock_bits'
p352
S'0x2F'
p353
sS'file'
p354
S'Caterina-Leonardo.hex'
p355
sS'path'
p356
S'caterina'
p357
sS'unlock_bits'
p358
S'0x3F'
p359
ssS'upload'
p360
(dp361
S'speed'
p362
S'57600'
p363
sS'maximum_size'
p364
S'28672'
p365
sS'protocol'
p366
S'avr109'
p367
sS'disable_flushing'
p368
S'true'
p369
ssS'name'
p370
S'Arduino Leonardo'
p371
sS'build'
p372
(dp373
S'core'
p374
S'arduino'
p375
sS'f_cpu'
p376
S'16000000L'
p377
sS'vid'
p378
S'0x2341'
p379
sS'pid'
p380
S'0x8036'
p381
sS'variant'
p382
S'leonardo'
p383
sS'mcu'
p384
S'atmega32u4'
p385
ssaa(lp386
S'esplora'
p387
a(dp388
S'bootloader'
p389
(dp390
S'extended_fuses'
p391
S'0xcb'
p392
sS'high_fuses'
p393
S'0xd8'
p394
sS'low_fuses'
p395
S'0xff'
p396
sS'lock_bits'
p397
S'0x2F'
p398
sS'file'
p399
S'Caterina-Esplora.hex'
p400
sS'path'
p401
S'caterina'
p402
sS'unlock_bits'
p403
S'0x3F'
p404
ssS'upload'
p405
(dp406
S'speed'
p407
S'57600'
p408
sS'maximum_size'
p409
S'28672'
p410
sS'protocol'
p411
S'avr109'
p412
sS'disable_flushing'
p413
S'true'
p414
ssS'name'
p415
S'Arduino Esplora'
p416
sS'build'
p417
(dp418
S'core'
p419
S'arduino'
p420
sS'f_cpu'
p421
S'16000000L'
p422
sS'vid'
p423
S'0x2341'
p424
sS'pid'
p425
S'0x803C'
p426
sS'variant'
p427
S'leonardo'
p428
sS'mcu'
p429
S'atmega32u4'
p430
ssaa(lp431
S'micro'
p432
a(dp433
S'bootloader'
p434
(dp435
S'extended_fuses'
p436
S'0xcb'
p437
sS'high_fuses'
p438
S'0xd8'
p439
sS'low_fuses'
p440
S'0xff'
p441
sS'lock_bits'
p442
S'0x2F'
p443
sS'file'
p444
S'Caterina-Micro.hex'
p445
sS'path'
p446
S'caterina'
p447
sS'unlock_bits'
p448
S'0x3F'
p449
ssS'upload'
p450
(dp451
S'speed'
p452
S'57600'
p453
sS'maximum_size'
p454
S'28672'
p455
sS'protocol'
p456
S'avr109'
p457
sS'disable_flushing'
p458
S'true'
p459
ssS'name'
p460
S'Arduino Micro'
p461
sS'build'
p462
(dp463
S'core'
p464
S'arduino'
p465
sS'f_cpu'
p466
S'16000000L'
p467
sS'vid'
p468
S'0x2341'
p469
sS'pid'
p470
S'0x8037'
p471
sS'variant'
p472
S'micro'
p473
sS'mcu'
p474
S'atmega32u4'
p475
ssaa(lp476
S'mini328'
p477
a(dp478
S'bootloader'
p479
(dp480
S'extended_fuses'
p481
S'0x05'
p482
sS'high_fuses'
p483
S'0xd8'
p484
sS'low_fuses'
p485
S'0xff'
p486
sS'lock_bits'
p487
S'0x0F'
p488
sS'file'
p489
S'optiboot_atmega328-Mini.hex'
p490
sS'path'
p491
S'optiboot'
p492
sS'unlock_bits'
p493
S'0x3F'
p494
ssS'upload'
p495
(dp496
S'speed'
p497
S'115200'
p498
sS'maximum_size'
p499
S'28672'
p500
sS'protocol'
p501
S'arduino'
p502
ssS'name'
p503
S'Arduino Mini w/ ATmega328'
p504
sS'build'
p505
(dp506
S'core'
p507
S'arduino'
p508
sS'mcu'
p509
S'atmega328p'
p510
sS'f_cpu'
p511
S'16000000L'
p512
sS'variant'
p513
S'eightanaloginputs'
p514
ssaa(lp515
S'mini'
p516
a(dp517
S'bootloader'
p518
(dp519
S'extended_fuses'
p520
S'0x00'
p521
sS'high_fuses'
p522
S'0xdd'
p523
sS'low_fuses'
p524
S'0xff'
p525
sS'lock_bits'
p526
S'0x0F'
p527
sS'file'
p528
S'ATmegaBOOT_168_ng.hex'
p529
sS'path'
p530
S'atmega'
p531
sS'unlock_bits'
p532
S'0x3F'
p533
ssS'upload'
p534
(dp535
S'speed'
p536
S'19200'
p537
sS'maximum_size'
p538
S'14336'
p539
sS'protocol'
p540
S'arduino'
p541
ssS'name'
p542
S'Arduino Mini w/ ATmega168'
p543
sS'build'
p544
(dp545
S'core'
p546
S'arduino'
p547
sS'mcu'
p548
S'atmega168'
p549
sS'f_cpu'
p550
S'16000000L'
p551
sS'variant'
p552
S'eightanaloginputs'
p553
ssaa(lp554
S'ethernet'
p555
a(dp556
S'bootloader'
p557
(dp558
S'extended_fuses'
p559
S'0x05'
p560
sS'high_fuses'
p561
S'0xde'
p562
sS'low_fuses'
p563
S'0xff'
p564
sS'lock_bits'
p565
S'0x0F'
p566
sS'file'
p567
S'optiboot_atmega328.hex'
p568
sS'path'
p569
S'optiboot'
p570
sS'unlock_bits'
p571
S'0x3F'
p572
ssS'upload'
p573
(dp574
S'speed'
p575
S'115200'
p576
sS'maximum_size'
p577
S'32256'
p578
sS'protocol'
p579
S'arduino'
p580
ssS'name'
p581
S'Arduino Ethernet'
p582
sS'build'
p583
(dp584
S'f_cpu'
p585
S'16000000L'
p586
sS'mcu'
p587
S'atmega328p'
p588
sS'variant'
p589
S'standard'
p590
sS'core'
p591
S'arduino'
p592
ssaa(lp593
S'fio'
p594
a(dp595
S'bootloader'
p596
(dp597
S'extended_fuses'
p598
S'0x05'
p599
sS'high_fuses'
p600
S'0xDA'
p601
sS'low_fuses'
p602
S'0xFF'
p603
sS'lock_bits'
p604
S'0x0F'
p605
sS'file'
p606
S'ATmegaBOOT_168_atmega328_pro_8MHz.hex'
p607
sS'path'
p608
S'arduino:atmega'
p609
sS'unlock_bits'
p610
S'0x3F'
p611
ssS'upload'
p612
(dp613
S'speed'
p614
S'57600'
p615
sS'maximum_size'
p616
S'30720'
p617
sS'protocol'
p618
S'arduino'
p619
ssS'name'
p620
S'Arduino Fio'
p621
sS'build'
p622
(dp623
S'core'
p624
S'arduino'
p625
sS'mcu'
p626
S'atmega328p'
p627
sS'f_cpu'
p628
S'8000000L'
p629
sS'variant'
p630
S'eightanaloginputs'
p631
ssaa(lp632
S'bt328'
p633
a(dp634
S'bootloader'
p635
(dp636
S'extended_fuses'
p637
S'0x05'
p638
sS'high_fuses'
p639
S'0xd8'
p640
sS'low_fuses'
p641
S'0xff'
p642
sS'lock_bits'
p643
S'0x0F'
p644
sS'file'
p645
S'ATmegaBOOT_168_atmega328_bt.hex'
p646
sS'path'
p647
S'bt'
p648
sS'unlock_bits'
p649
S'0x3F'
p650
ssS'upload'
p651
(dp652
S'speed'
p653
S'19200'
p654
sS'maximum_size'
p655
S'28672'
p656
sS'protocol'
p657
S'arduino'
p658
sS'disable_flushing'
p659
S'true'
p660
ssS'name'
p661
S'Arduino BT w/ ATmega328'
p662
sS'build'
p663
(dp664
S'core'
p665
S'arduino'
p666
sS'mcu'
p667
S'atmega328p'
p668
sS'f_cpu'
p669
S'16000000L'
p670
sS'variant'
p671
S'eightanaloginputs'
p672
ssaa(lp673
S'bt'
p674
a(dp675
S'bootloader'
p676
(dp677
S'extended_fuses'
p678
S'0x00'
p679
sS'high_fuses'
p680
S'0xdd'
p681
sS'low_fuses'
p682
S'0xff'
p683
sS'lock_bits'
p684
S'0x0F'
p685
sS'file'
p686
S'ATmegaBOOT_168.hex'
p687
sS'path'
p688
S'bt'
p689
sS'unlock_bits'
p690
S'0x3F'
p691
ssS'upload'
p692
(dp693
S'speed'
p694
S'19200'
p695
sS'maximum_size'
p696
S'14336'
p697
sS'protocol'
p698
S'arduino'
p699
sS'disable_flushing'
p700
S'true'
p701
ssS'name'
p702
S'Arduino BT w/ ATmega168'
p703
sS'build'
p704
(dp705
S'core'
p706
S'arduino'
p707
sS'mcu'
p708
S'atmega168'
p709
sS'f_cpu'
p710
S'16000000L'
p711
sS'variant'
p712
S'eightanaloginputs'
p713
ssaa(lp714
S'LilyPadUSB'
p715
a(dp716
S'bootloader'
p717
(dp718
S'extended_fuses'
p719
S'0xce'
p720
sS'high_fuses'
p721
S'0xd8'
p722
sS'low_fuses'
p723
S'0xff'
p724
sS'lock_bits'
p725
S'0x2F'
p726
sS'file'
p727
S'Caterina-LilyPadUSB.hex'
p728
sS'path'
p729
S'caterina-LilyPadUSB'
p730
sS'unlock_bits'
p731
S'0x3F'
p732
ssS'upload'
p733
(dp734
S'speed'
p735
S'57600'
p736
sS'maximum_size'
p737
S'28672'
p738
sS'protocol'
p739
S'avr109'
p740
sS'disable_flushing'
p741
S'true'
p742
ssS'name'
p743
S'LilyPad Arduino USB'
p744
sS'build'
p745
(dp746
S'core'
p747
S'arduino'
p748
sS'f_cpu'
p749
S'8000000L'
p750
sS'vid'
p751
S'0x1B4F'
p752
sS'pid'
p753
S'0x9208'
p754
sS'variant'
p755
S'leonardo'
p756
sS'mcu'
p757
S'atmega32u4'
p758
ssaa(lp759
S'lilypad328'
p760
a(dp761
S'bootloader'
p762
(dp763
S'extended_fuses'
p764
S'0x05'
p765
sS'high_fuses'
p766
S'0xDA'
p767
sS'low_fuses'
p768
S'0xFF'
p769
sS'lock_bits'
p770
S'0x0F'
p771
sS'file'
p772
S'ATmegaBOOT_168_atmega328_pro_8MHz.hex'
p773
sS'path'
p774
S'atmega'
p775
sS'unlock_bits'
p776
S'0x3F'
p777
ssS'upload'
p778
(dp779
S'speed'
p780
S'57600'
p781
sS'maximum_size'
p782
S'30720'
p783
sS'protocol'
p784
S'arduino'
p785
ssS'name'
p786
S'LilyPad Arduino w/ ATmega328'
p787
sS'build'
p788
(dp789
S'core'
p790
S'arduino'
p791
sS'mcu'
p792
S'atmega328p'
p793
sS'f_cpu'
p794
S'8000000L'
p795
sS'variant'
p796
S'standard'
p797
ssaa(lp798
S'lilypad'
p799
a(dp800
S'bootloader'
p801
(dp802
S'extended_fuses'
p803
S'0x00'
p804
sS'high_fuses'
p805
S'0xdd'
p806
sS'low_fuses'
p807
S'0xe2'
p808
sS'lock_bits'
p809
S'0x0F'
p810
sS'file'
p811
S'LilyPadBOOT_168.hex'
p812
sS'path'
p813
S'lilypad'
p814
sS'unlock_bits'
p815
S'0x3F'
p816
ssS'upload'
p817
(dp818
S'speed'
p819
S'19200'
p820
sS'maximum_size'
p821
S'14336'
p822
sS'protocol'
p823
S'arduino'
p824
ssS'name'
p825
S'LilyPad Arduino w/ ATmega168'
p826
sS'build'
p827
(dp828
S'core'
p829
S'arduino'
p830
sS'mcu'
p831
S'atmega168'
p832
sS'f_cpu'
p833
S'8000000L'
p834
sS'variant'
p835
S'standard'
p836
ssaa(lp837
S'pro5v328'
p838
a(dp839
S'bootloader'
p840
(dp841
S'extended_fuses'
p842
S'0x05'
p843
sS'high_fuses'
p844
S'0xDA'
p845
sS'low_fuses'
p846
S'0xFF'
p847
sS'lock_bits'
p848
S'0x0F'
p849
sS'file'
p850
S'ATmegaBOOT_168_atmega328.hex'
p851
sS'path'
p852
S'atmega'
p853
sS'unlock_bits'
p854
S'0x3F'
p855
ssS'upload'
p856
(dp857
S'speed'
p858
S'57600'
p859
sS'maximum_size'
p860
S'30720'
p861
sS'protocol'
p862
S'arduino'
p863
ssS'name'
p864
S'Arduino Pro or Pro Mini (5V, 16 MHz) w/ ATmega328'
p865
sS'build'
p866
(dp867
S'core'
p868
S'arduino'
p869
sS'mcu'
p870
S'atmega328p'
p871
sS'f_cpu'
p872
S'16000000L'
p873
sS'variant'
p874
S'standard'
p875
ssaa(lp876
S'pro5v'
p877
a(dp878
S'bootloader'
p879
(dp880
S'extended_fuses'
p881
S'0x00'
p882
sS'high_fuses'
p883
S'0xdd'
p884
sS'low_fuses'
p885
S'0xff'
p886
sS'lock_bits'
p887
S'0x0F'
p888
sS'file'
p889
S'ATmegaBOOT_168_diecimila.hex'
p890
sS'path'
p891
S'atmega'
p892
sS'unlock_bits'
p893
S'0x3F'
p894
ssS'upload'
p895
(dp896
S'speed'
p897
S'19200'
p898
sS'maximum_size'
p899
S'14336'
p900
sS'protocol'
p901
S'arduino'
p902
ssS'name'
p903
S'Arduino Pro or Pro Mini (5V, 16 MHz) w/ ATmega168'
p904
sS'build'
p905
(dp906
S'core'
p907
S'arduino'
p908
sS'mcu'
p909
S'atmega168'
p910
sS'f_cpu'
p911
S'16000000L'
p912
sS'variant'
p913
S'standard'
p914
ssaa(lp915
S'pro328'
p916
a(dp917
S'bootloader'
p918
(dp919
S'extended_fuses'
p920
S'0x05'
p921
sS'high_fuses'
p922
S'0xDA'
p923
sS'low_fuses'
p924
S'0xFF'
p925
sS'lock_bits'
p926
S'0x0F'
p927
sS'file'
p928
S'ATmegaBOOT_168_atmega328_pro_8MHz.hex'
p929
sS'path'
p930
S'atmega'
p931
sS'unlock_bits'
p932
S'0x3F'
p933
ssS'upload'
p934
(dp935
S'speed'
p936
S'57600'
p937
sS'maximum_size'
p938
S'30720'
p939
sS'protocol'
p940
S'arduino'
p941
ssS'name'
p942
S'Arduino Pro or Pro Mini (3.3V, 8 MHz) w/ ATmega328'
p943
sS'build'
p944
(dp945
S'core'
p946
S'arduino'
p947
sS'mcu'
p948
S'atmega328p'
p949
sS'f_cpu'
p950
S'8000000L'
p951
sS'variant'
p952
S'standard'
p953
ssaa(lp954
S'pro'
p955
a(dp956
S'bootloader'
p957
(dp958
S'extended_fuses'
p959
S'0x00'
p960
sS'high_fuses'
p961
S'0xdd'
p962
sS'low_fuses'
p963
S'0xc6'
p964
sS'lock_bits'
p965
S'0x0F'
p966
sS'file'
p967
S'ATmegaBOOT_168_pro_8MHz.hex'
p968
sS'path'
p969
S'atmega'
p970
sS'unlock_bits'
p971
S'0x3F'
p972
ssS'upload'
p973
(dp974
S'speed'
p975
S'19200'
p976
sS'maximum_size'
p977
S'14336'
p978
sS'protocol'
p979
S'arduino'
p980
ssS'name'
p981
S'Arduino Pro or Pro Mini (3.3V, 8 MHz) w/ ATmega168'
p982
sS'build'
p983
(dp984
S'core'
p985
S'arduino'
p986
sS'mcu'
p987
S'atmega168'
p988
sS'f_cpu'
p989
S'8000000L'
p990
sS'variant'
p991
S'standard'
p992
ssaa(lp993
S'atmega168'
p994
a(dp995
S'bootloader'
p996
(dp997
S'extended_fuses'
p998
S'0x00'
p999
sS'high_fuses'
p1000
S'0xdd'
p1001
sS'low_fuses'
p1002
S'0xff'
p1003
sS'lock_bits'
p1004
S'0x0F'
p1005
sS'file'
p1006
S'ATmegaBOOT_168_ng.hex'
p1007
sS'path'
p1008
S'atmega'
p1009
sS'unlock_bits'
p1010
S'0x3F'
p1011
ssS'upload'
p1012
(dp1013
S'speed'
p1014
S'19200'
p1015
sS'maximum_size'
p1016
S'14336'
p1017
sS'protocol'
p1018
S'arduino'
p1019
ssS'name'
p1020
S'Arduino NG or older w/ ATmega168'
p1021
sS'build'
p1022
(dp1023
S'core'
p1024
S'arduino'
p1025
sS'mcu'
p1026
S'atmega168'
p1027
sS'f_cpu'
p1028
S'16000000L'
p1029
sS'variant'
p1030
S'standard'
p1031
ssaa(lp1032
S'atmega8'
p1033
a(dp1034
S'bootloader'
p1035
(dp1036
S'high_fuses'
p1037
S'0xca'
p1038
sS'low_fuses'
p1039
S'0xdf'
p1040
sS'lock_bits'
p1041
S'0x0F'
p1042
sS'file'
p1043
S'ATmegaBOOT-prod-firmware-2009-11-07.hex'
p1044
sS'path'
p1045
S'atmega8'
p1046
sS'unlock_bits'
p1047
S'0x3F'
p1048
ssS'upload'
p1049
(dp1050
S'speed'
p1051
S'19200'
p1052
sS'maximum_size'
p1053
S'7168'
p1054
sS'protocol'
p1055
S'arduino'
p1056
ssS'name'
p1057
S'Arduino NG or older w/ ATmega8'
p1058
sS'build'
p1059
(dp1060
S'core'
p1061
S'arduino'
p1062
sS'mcu'
p1063
S'atmega8'
p1064
sS'f_cpu'
p1065
S'16000000L'
p1066
sS'variant'
p1067
S'standard'
p1068
ssaa(lp1069
S'robotControl'
p1070
a(dp1071
S'bootloader'
p1072
(dp1073
S'extended_fuses'
p1074
S'0xcb'
p1075
sS'high_fuses'
p1076
S'0xd8'
p1077
sS'low_fuses'
p1078
S'0xff'
p1079
sS'lock_bits'
p1080
S'0x2F'
p1081
sS'file'
p1082
S'Caterina-Robot-Control.hex'
p1083
sS'path'
p1084
S'caterina-Arduino_Robot'
p1085
sS'unlock_bits'
p1086
S'0x3F'
p1087
ssS'upload'
p1088
(dp1089
S'speed'
p1090
S'57600'
p1091
sS'maximum_size'
p1092
S'28672'
p1093
sS'protocol'
p1094
S'avr109'
p1095
sS'disable_flushing'
p1096
S'true'
p1097
ssS'name'
p1098
S'Arduino Robot Control'
p1099
sS'build'
p1100
(dp1101
S'core'
p1102
S'robot'
p1103
sS'f_cpu'
p1104
S'16000000L'
p1105
sS'vid'
p1106
S'0x2341'
p1107
sS'pid'
p1108
S'0x8038'
p1109
sS'variant'
p1110
S'robot_control'
p1111
sS'mcu'
p1112
S'atmega32u4'
p1113
ssaa(lp1114
S'robotMotor'
p1115
a(dp1116
S'bootloader'
p1117
(dp1118
S'extended_fuses'
p1119
S'0xcb'
p1120
sS'high_fuses'
p1121
S'0xd8'
p1122
sS'low_fuses'
p1123
S'0xff'
p1124
sS'lock_bits'
p1125
S'0x2F'
p1126
sS'file'
p1127
S'Caterina-Robot-Motor.hex'
p1128
sS'path'
p1129
S'caterina-Arduino_Robot'
p1130
sS'unlock_bits'
p1131
S'0x3F'
p1132
ssS'upload'
p1133
(dp1134
S'speed'
p1135
S'57600'
p1136
sS'maximum_size'
p1137
S'28672'
p1138
sS'protocol'
p1139
S'avr109'
p1140
sS'disable_flushing'
p1141
S'true'
p1142
ssS'name'
p1143
S'Arduino Robot Motor'
p1144
sS'build'
p1145
(dp1146
S'core'
p1147
S'robot'
p1148
sS'f_cpu'
p1149
S'16000000L'
p1150
sS'vid'
p1151
S'0x2341'
p1152
sS'pid'
p1153
S'0x8039'
p1154
sS'variant'
p1155
S'robot_motor'
p1156
sS'mcu'
p1157
S'atmega32u4'
p1158
ssaatp1159
Rp1160
(dp1161
S'default'
p1162
S'uno'
p1163
sbtp1164
a(S'used_libs'
p1165
(lp1166
S'/usr/share/arduino/libraries/Robot_Control'
p1167
aS'/usr/share/arduino/libraries/SD'
p1168
aS'/usr/share/arduino/hardware/arduino/cores/arduino'
p1169
atp1170
a(S'make'
p1171
S'/usr/share/arduino/hardware/tools/avr/bin/make'
p1172
tp1173
a(S'build_dir'
p1174
S'.build/uno'
p1175
tp1176
a(S'cc'
p1177
S'/usr/share/arduino/hardware/tools/avr/bin/avr-gcc'
p1178
tp1179
a(S'cflags'
p1180
g2
(g3
g4
(lp1181
tp1182
Rp1183
tp1184
a(S'cxxflags'
p1185
g2
(g3
g4
(lp1186
S'-fno-exceptions'
p1187
atp1188
Rp1189
tp1190
a(S'arduino_variants_dir'
p1191
S'/usr/share/arduino/hardware/arduino/variants'
p1192
tp1193
a(S'stty'
p1194
S'/bin/stty'
p1195
tp1196
a(S'version.txt'
p1197
S'/usr/share/arduino/lib/version.txt'
p1198
tp1199
a(S'arduino_core_dir'
p1200
g1169
tp1201
a(S'boards.txt'
p1202
S'/usr/share/arduino/hardware/arduino/boards.txt'
p1203
tp1204
a(S'avrdude.conf'
p1205
S'/usr/share/arduino/hardware/tools/avrdude.conf'
p1206
tp1207
a(S'deps'
p1208
g2
(g3
g4
(lp1209
S'.build/uno/src/dependencies.d'
p1210
aS'.build/uno/arduino/dependencies.d'
p1211
aS'.build/uno/Robot_Control/dependencies.d'
p1212
aS'.build/uno/SD/dependencies.d'
p1213
atp1214
Rp1215
tp1216
a.